; Function Attrs: mustprogress uwtable
define hidden noundef zeroext i1 @_ZNK3smt10theory_seq11upper_boundEP4exprR8rational(ptr noundef nonnull align 8 dereferenceable(4328) %this, ptr noundef nonnull %e, ptr noundef nonnull align 8 dereferenceable(32) %hi) local_unnamed_addr #3 align 2 {
entry:
  %is_strict = alloca i8, align 1
  %call.i = tail call noundef ptr @_ZNK4expr8get_sortEv(ptr noundef nonnull align 4 dereferenceable(16) %e)
  %m_info.i.i.i.i.i = getelementptr inbounds i8, ptr %call.i, i64 24
  %0 = load ptr, ptr %m_info.i.i.i.i.i, align 8
  %cmp.i.i.i.i.i = icmp eq ptr %0, null
  br i1 %cmp.i.i.i.i.i, label %if.then, label %_ZNK4decl13get_family_idEv.exit.thread.i.i.i.i

_ZNK4decl13get_family_idEv.exit.thread.i.i.i.i:   ; preds = %entry
  %1 = load i32, ptr %0, align 8
  %cmp6.i.i.i.i = icmp eq i32 %1, 5
  br i1 %cmp6.i.i.i.i, label %_ZNK17arith_recognizers6is_intEPK4expr.exit, label %if.then

_ZNK17arith_recognizers6is_intEPK4expr.exit:      ; preds = %_ZNK4decl13get_family_idEv.exit.thread.i.i.i.i
  %m_kind.i.i.i.i.i.i = getelementptr inbounds i8, ptr %0, i64 4
  %2 = load i32, ptr %m_kind.i.i.i.i.i.i, align 4
  %cmp3.i.i.i.i = icmp eq i32 %2, 1
  br i1 %cmp3.i.i.i.i, label %if.end, label %if.then

if.then:                                          ; preds = %entry, %_ZNK4decl13get_family_idEv.exit.thread.i.i.i.i, %_ZNK17arith_recognizers6is_intEPK4expr.exit
  tail call void @_Z26notify_assertion_violationPKciS0_(ptr noundef nonnull @.str.32, i32 noundef 2816, ptr noundef nonnull @.str.85)
  tail call void @exit(i32 noundef 114) #25
  unreachable

if.end:                                           ; preds = %_ZNK17arith_recognizers6is_intEPK4expr.exit
  store i8 1, ptr %is_strict, align 1
  %m_arith_value = getelementptr inbounds i8, ptr %this, i64 3888
  %call2 = call noundef zeroext i1 @_ZNK3smt11arith_value6get_upEP4exprR8rationalRb(ptr noundef nonnull align 8 dereferenceable(88) %m_arith_value, ptr noundef nonnull %e, ptr noundef nonnull align 8 dereferenceable(32) %hi, ptr noundef nonnull align 1 dereferenceable(1) %is_strict)
  br i1 %call2, label %land.lhs.true, label %land.end

land.lhs.true:                                    ; preds = %if.end
  %3 = load i8, ptr %is_strict, align 1
  %4 = and i8 %3, 1
  %tobool.not = icmp eq i8 %4, 0
  br i1 %tobool.not, label %land.rhs, label %land.end

land.rhs:                                         ; preds = %land.lhs.true
  %m_den.i.i = getelementptr inbounds i8, ptr %hi, i64 16
  %m_kind.i.i.i.i.i = getelementptr inbounds i8, ptr %hi, i64 20
  %bf.load.i.i.i.i.i = load i8, ptr %m_kind.i.i.i.i.i, align 4
  %bf.clear.i.i.i.i.i = and i8 %bf.load.i.i.i.i.i, 1
  %cmp.i.i.i.i.i3 = icmp eq i8 %bf.clear.i.i.i.i.i, 0
  %5 = load i32, ptr %m_den.i.i, align 8
  %cmp.i.i.i.i = icmp eq i32 %5, 1
  %6 = select i1 %cmp.i.i.i.i.i3, i1 %cmp.i.i.i.i, i1 false
  br label %land.end

land.end:                                         ; preds = %land.rhs, %land.lhs.true, %if.end
  %7 = phi i1 [ false, %land.lhs.true ], [ false, %if.end ], [ %6, %land.rhs ]
  ret i1 %7
}